; Function Attrs: nounwind uwtable
define internal i32 @pmix_psensor_base_open(i32 noundef %0) #1 {
  %2 = load i32, ptr @pmix_class_init_epoch, align 4, !tbaa !3
  %3 = load i32, ptr getelementptr inbounds nuw (i8, ptr @pmix_list_t_class, i64 32), align 8, !tbaa !7
  %.not = icmp eq i32 %2, %3
  br i1 %.not, label %5, label %4

4:                                                ; preds = %1
  tail call void @pmix_class_initialize(ptr noundef nonnull @pmix_list_t_class) #8
  br label %5

5:                                                ; preds = %4, %1
  store ptr @pmix_list_t_class, ptr getelementptr inbounds nuw (i8, ptr @pmix_psensor_base, i64 40), align 8, !tbaa !13
  store i32 1, ptr getelementptr inbounds nuw (i8, ptr @pmix_psensor_base, i64 48), align 8, !tbaa !16
  tail call void @llvm.memset.p0.i64(ptr noundef nonnull align 8 dereferenceable(64) getelementptr inbounds nuw (i8, ptr @pmix_psensor_base, i64 56), i8 0, i64 64, i1 false)
  %6 = load ptr, ptr getelementptr inbounds nuw (i8, ptr @pmix_list_t_class, i64 40), align 8, !tbaa !17
  %7 = load ptr, ptr %6, align 8, !tbaa !18
  %.not1.i = icmp eq ptr %7, null
  br i1 %.not1.i, label %pmix_obj_run_constructors.exit, label %.lr.ph.i

.lr.ph.i:                                         ; preds = %5, %.lr.ph.i
  %8 = phi ptr [ %10, %.lr.ph.i ], [ %7, %5 ]
  %.02.i = phi ptr [ %9, %.lr.ph.i ], [ %6, %5 ]
  tail call void %8(ptr noundef nonnull @pmix_psensor_base) #8
  %9 = getelementptr inbounds nuw i8, ptr %.02.i, i64 8
  %10 = load ptr, ptr %9, align 8, !tbaa !18
  %.not.i = icmp eq ptr %10, null
  br i1 %.not.i, label %pmix_obj_run_constructors.exit, label %.lr.ph.i, !llvm.loop !19

pmix_obj_run_constructors.exit:                   ; preds = %.lr.ph.i, %5
  %11 = load i8, ptr @use_separate_thread, align 1, !tbaa !21, !range !23, !noundef !24
  %12 = trunc nuw i8 %11 to i1
  br i1 %12, label %13, label %16

13:                                               ; preds = %pmix_obj_run_constructors.exit
  %14 = tail call ptr @pmix_progress_thread_init(ptr noundef nonnull @.str.7) #8
  store ptr %14, ptr getelementptr inbounds nuw (i8, ptr @pmix_psensor_base, i64 272), align 8, !tbaa !25
  %15 = icmp eq ptr %14, null
  br i1 %15, label %20, label %18

16:                                               ; preds = %pmix_obj_run_constructors.exit
  %17 = load ptr, ptr getelementptr inbounds nuw (i8, ptr @pmix_globals, i64 376), align 8, !tbaa !31
  store ptr %17, ptr getelementptr inbounds nuw (i8, ptr @pmix_psensor_base, i64 272), align 8, !tbaa !25
  br label %18

18:                                               ; preds = %13, %16
  %19 = tail call i32 @pmix_mca_base_framework_components_open(ptr noundef nonnull @pmix_psensor_base_framework, i32 noundef %0) #8
  br label %20

20:                                               ; preds = %13, %18
  %.0 = phi i32 [ %19, %18 ], [ -1, %13 ]
  ret i32 %.0
}